target datalayout = "e-m:e-p270:32:32-p271:32:32-p272:64:64-i64:64-i128:128-f80:128-n8:16:32:64-S128"
target triple = "x86_64-pc-linux-gnu"

%struct.testVector = type { ptr, ptr, i64, i64 }
%struct.Hmac = type { %union.wc_Hashes, [36 x i32], [36 x i32], [16 x i32], ptr, i8, i8 }
%union.wc_Hashes = type { %struct.wc_Sha3 }
%struct.wc_Sha3 = type { [25 x i64], [200 x i8], i8, ptr }

@.str.53 = private unnamed_addr constant [9 x i8] c"Hi There\00", align 1
@.str.55 = private unnamed_addr constant [29 x i8] c"what do ya want for nothing?\00", align 1
@.str.57 = private unnamed_addr constant [51 x i8] c"\DD\DD\DD\DD\DD\DD\DD\DD\DD\DD\DD\DD\DD\DD\DD\DD\DD\DD\DD\DD\DD\DD\DD\DD\DD\DD\DD\DD\DD\DD\DD\DD\DD\DD\DD\DD\DD\DD\DD\DD\DD\DD\DD\DD\DD\DD\DD\DD\DD\DD\00", align 1
@__const.hmac_sha384_test.keys = private unnamed_addr constant [3 x ptr] [ptr @.str.59, ptr @.str.51, ptr @.str.60], align 16
@.str.70 = private unnamed_addr constant [49 x i8] c"\AF\D09D\D8H\95bk\08%\F4\ABF\90\7F\15\F9\DA\DB\E4\10\1E\C6\82\AA\03L|\EB\C5\9C\FA\EA\9E\A9\07n\DE\7FJ\F1R\E8\B2\FA\9C\B6\00", align 1
@.str.71 = private unnamed_addr constant [49 x i8] c"\AFE\D2\E3vH@1a\7Fx\D2\B5\8Ak\1B\9C~\F4d\F5\A0\1BG\E4.\C3sc\22D^\8E\22@\CA^i\E2\C7\8B29\EC\FA\B2\16I\00", align 1
@.str.72 = private unnamed_addr constant [49 x i8] c"\88\06&\08\D3\E6\AD\8A\0A\A2\AC\E0\14\C8\A8o\0A\A65\D9G\AC\9F\EB\E8>\F4\E5Yf\14K*Z\B3\9D\C18\14\B9N:\B6\E1\01\A3O'\00", align 1

; Function Attrs: nounwind uwtable
define dso_local i32 @hmac_sha384_test() #0 {
  %1 = alloca i32, align 4
  %2 = alloca %struct.Hmac, align 16
  %3 = alloca [48 x i8], align 16
  %4 = alloca [3 x ptr], align 16
  %5 = alloca %struct.testVector, align 8
  %6 = alloca %struct.testVector, align 8
  %7 = alloca %struct.testVector, align 8
  %8 = alloca [3 x %struct.testVector], align 16
  %9 = alloca i32, align 4
  %10 = alloca i32, align 4
  %11 = alloca i32, align 4
  %12 = alloca i32, align 4
  call void @llvm.lifetime.start.p0(i64 784, ptr %2) #5
  call void @llvm.lifetime.start.p0(i64 48, ptr %3) #5
  call void @llvm.lifetime.start.p0(i64 24, ptr %4) #5
  call void @llvm.memcpy.p0.p0.i64(ptr align 16 %4, ptr align 16 @__const.hmac_sha384_test.keys, i64 24, i1 false)
  call void @llvm.lifetime.start.p0(i64 32, ptr %5) #5
  call void @llvm.lifetime.start.p0(i64 32, ptr %6) #5
  call void @llvm.lifetime.start.p0(i64 32, ptr %7) #5
  call void @llvm.lifetime.start.p0(i64 96, ptr %8) #5
  call void @llvm.lifetime.start.p0(i64 4, ptr %9) #5
  call void @llvm.lifetime.start.p0(i64 4, ptr %10) #5
  store i32 3, ptr %10, align 4, !tbaa !4
  call void @llvm.lifetime.start.p0(i64 4, ptr %11) #5
  %13 = getelementptr inbounds nuw %struct.testVector, ptr %5, i32 0, i32 0
  store ptr @.str.53, ptr %13, align 8, !tbaa !8
  %14 = getelementptr inbounds nuw %struct.testVector, ptr %5, i32 0, i32 1
  store ptr @.str.70, ptr %14, align 8, !tbaa !13
  %15 = getelementptr inbounds nuw %struct.testVector, ptr %5, i32 0, i32 0
  %16 = load ptr, ptr %15, align 8, !tbaa !8
  %17 = call i64 @strlen(ptr noundef %16) #6
  %18 = getelementptr inbounds nuw %struct.testVector, ptr %5, i32 0, i32 2
  store i64 %17, ptr %18, align 8, !tbaa !14
  %19 = getelementptr inbounds nuw %struct.testVector, ptr %5, i32 0, i32 1
  %20 = load ptr, ptr %19, align 8, !tbaa !13
  %21 = call i64 @strlen(ptr noundef %20) #6
  %22 = getelementptr inbounds nuw %struct.testVector, ptr %5, i32 0, i32 3
  store i64 %21, ptr %22, align 8, !tbaa !15
  %23 = getelementptr inbounds nuw %struct.testVector, ptr %6, i32 0, i32 0
  store ptr @.str.55, ptr %23, align 8, !tbaa !8
  %24 = getelementptr inbounds nuw %struct.testVector, ptr %6, i32 0, i32 1
  store ptr @.str.71, ptr %24, align 8, !tbaa !13
  %25 = getelementptr inbounds nuw %struct.testVector, ptr %6, i32 0, i32 0
  %26 = load ptr, ptr %25, align 8, !tbaa !8
  %27 = call i64 @strlen(ptr noundef %26) #6
  %28 = getelementptr inbounds nuw %struct.testVector, ptr %6, i32 0, i32 2
  store i64 %27, ptr %28, align 8, !tbaa !14
  %29 = getelementptr inbounds nuw %struct.testVector, ptr %6, i32 0, i32 1
  %30 = load ptr, ptr %29, align 8, !tbaa !13
  %31 = call i64 @strlen(ptr noundef %30) #6
  %32 = getelementptr inbounds nuw %struct.testVector, ptr %6, i32 0, i32 3
  store i64 %31, ptr %32, align 8, !tbaa !15
  %33 = getelementptr inbounds nuw %struct.testVector, ptr %7, i32 0, i32 0
  store ptr @.str.57, ptr %33, align 8, !tbaa !8
  %34 = getelementptr inbounds nuw %struct.testVector, ptr %7, i32 0, i32 1
  store ptr @.str.72, ptr %34, align 8, !tbaa !13
  %35 = getelementptr inbounds nuw %struct.testVector, ptr %7, i32 0, i32 0
  %36 = load ptr, ptr %35, align 8, !tbaa !8
  %37 = call i64 @strlen(ptr noundef %36) #6
  %38 = getelementptr inbounds nuw %struct.testVector, ptr %7, i32 0, i32 2
  store i64 %37, ptr %38, align 8, !tbaa !14
  %39 = getelementptr inbounds nuw %struct.testVector, ptr %7, i32 0, i32 1
  %40 = load ptr, ptr %39, align 8, !tbaa !13
  %41 = call i64 @strlen(ptr noundef %40) #6
  %42 = getelementptr inbounds nuw %struct.testVector, ptr %7, i32 0, i32 3
  store i64 %41, ptr %42, align 8, !tbaa !15
  %43 = getelementptr inbounds [3 x %struct.testVector], ptr %8, i64 0, i64 0
  call void @llvm.memcpy.p0.p0.i64(ptr align 16 %43, ptr align 8 %5, i64 32, i1 false), !tbaa.struct !16
  %44 = getelementptr inbounds [3 x %struct.testVector], ptr %8, i64 0, i64 1
  call void @llvm.memcpy.p0.p0.i64(ptr align 16 %44, ptr align 8 %6, i64 32, i1 false), !tbaa.struct !16
  %45 = getelementptr inbounds [3 x %struct.testVector], ptr %8, i64 0, i64 2
  call void @llvm.memcpy.p0.p0.i64(ptr align 16 %45, ptr align 8 %7, i64 32, i1 false), !tbaa.struct !16
  %46 = call i32 @wc_HmacInit(ptr noundef %2, ptr noundef null, i32 noundef -2)
  store i32 %46, ptr %9, align 4, !tbaa !4
  %47 = load i32, ptr %9, align 4, !tbaa !4
  %48 = icmp ne i32 %47, 0
  br i1 %48, label %49, label %50

49:                                               ; preds = %0
  store i32 -20009, ptr %1, align 4
  store i32 1, ptr %12, align 4
  br label %109

50:                                               ; preds = %0
  store i32 0, ptr %11, align 4, !tbaa !4
  br label %51

51:                                               ; preds = %105, %50
  %52 = load i32, ptr %11, align 4, !tbaa !4
  %53 = load i32, ptr %10, align 4, !tbaa !4
  %54 = icmp slt i32 %52, %53
  br i1 %54, label %55, label %108

55:                                               ; preds = %51
  %56 = load i32, ptr %11, align 4, !tbaa !4
  %57 = sext i32 %56 to i64
  %58 = getelementptr inbounds [3 x ptr], ptr %4, i64 0, i64 %57
  %59 = load ptr, ptr %58, align 8, !tbaa !17
  %60 = load i32, ptr %11, align 4, !tbaa !4
  %61 = sext i32 %60 to i64
  %62 = getelementptr inbounds [3 x ptr], ptr %4, i64 0, i64 %61
  %63 = load ptr, ptr %62, align 8, !tbaa !17
  %64 = call i64 @strlen(ptr noundef %63) #6
  %65 = trunc i64 %64 to i32
  %66 = call i32 @wc_HmacSetKey(ptr noundef %2, i32 noundef 7, ptr noundef %59, i32 noundef %65)
  store i32 %66, ptr %9, align 4, !tbaa !4
  %67 = load i32, ptr %9, align 4, !tbaa !4
  %68 = icmp ne i32 %67, 0
  br i1 %68, label %69, label %70

69:                                               ; preds = %55
  store i32 -4023, ptr %1, align 4
  store i32 1, ptr %12, align 4
  br label %109

70:                                               ; preds = %55
  %71 = load i32, ptr %11, align 4, !tbaa !4
  %72 = sext i32 %71 to i64
  %73 = getelementptr inbounds [3 x %struct.testVector], ptr %8, i64 0, i64 %72
  %74 = getelementptr inbounds nuw %struct.testVector, ptr %73, i32 0, i32 0
  %75 = load ptr, ptr %74, align 16, !tbaa !8
  %76 = load i32, ptr %11, align 4, !tbaa !4
  %77 = sext i32 %76 to i64
  %78 = getelementptr inbounds [3 x %struct.testVector], ptr %8, i64 0, i64 %77
  %79 = getelementptr inbounds nuw %struct.testVector, ptr %78, i32 0, i32 2
  %80 = load i64, ptr %79, align 16, !tbaa !14
  %81 = trunc i64 %80 to i32
  %82 = call i32 @wc_HmacUpdate(ptr noundef %2, ptr noundef %75, i32 noundef %81)
  store i32 %82, ptr %9, align 4, !tbaa !4
  %83 = load i32, ptr %9, align 4, !tbaa !4
  %84 = icmp ne i32 %83, 0
  br i1 %84, label %85, label %86

85:                                               ; preds = %70
  store i32 -4024, ptr %1, align 4
  store i32 1, ptr %12, align 4
  br label %109

86:                                               ; preds = %70
  %87 = getelementptr inbounds [48 x i8], ptr %3, i64 0, i64 0
  %88 = call i32 @wc_HmacFinal(ptr noundef %2, ptr noundef %87)
  store i32 %88, ptr %9, align 4, !tbaa !4
  %89 = load i32, ptr %9, align 4, !tbaa !4
  %90 = icmp ne i32 %89, 0
  br i1 %90, label %91, label %92

91:                                               ; preds = %86
  store i32 -4025, ptr %1, align 4
  store i32 1, ptr %12, align 4
  br label %109

92:                                               ; preds = %86
  %93 = getelementptr inbounds [48 x i8], ptr %3, i64 0, i64 0
  %94 = load i32, ptr %11, align 4, !tbaa !4
  %95 = sext i32 %94 to i64
  %96 = getelementptr inbounds [3 x %struct.testVector], ptr %8, i64 0, i64 %95
  %97 = getelementptr inbounds nuw %struct.testVector, ptr %96, i32 0, i32 1
  %98 = load ptr, ptr %97, align 8, !tbaa !13
  %99 = call i32 @memcmp(ptr noundef %93, ptr noundef %98, i64 noundef 48) #6
  %100 = icmp ne i32 %99, 0
  br i1 %100, label %101, label %104

101:                                              ; preds = %92
  %102 = load i32, ptr %11, align 4, !tbaa !4
  %103 = sub nsw i32 -20, %102
  store i32 %103, ptr %1, align 4
  store i32 1, ptr %12, align 4
  br label %109

104:                                              ; preds = %92
  br label %105

105:                                              ; preds = %104
  %106 = load i32, ptr %11, align 4, !tbaa !4
  %107 = add nsw i32 %106, 1
  store i32 %107, ptr %11, align 4, !tbaa !4
  br label %51, !llvm.loop !30

108:                                              ; preds = %51
  call void @wc_HmacFree(ptr noundef %2)
  store i32 0, ptr %1, align 4
  store i32 1, ptr %12, align 4
  br label %109

109:                                              ; preds = %108, %101, %91, %85, %69, %49
  call void @llvm.lifetime.end.p0(i64 4, ptr %11) #5
  call void @llvm.lifetime.end.p0(i64 4, ptr %10) #5
  call void @llvm.lifetime.end.p0(i64 4, ptr %9) #5
  call void @llvm.lifetime.end.p0(i64 96, ptr %8) #5
  call void @llvm.lifetime.end.p0(i64 32, ptr %7) #5
  call void @llvm.lifetime.end.p0(i64 32, ptr %6) #5
  call void @llvm.lifetime.end.p0(i64 32, ptr %5) #5
  call void @llvm.lifetime.end.p0(i64 24, ptr %4) #5
  call void @llvm.lifetime.end.p0(i64 48, ptr %3) #5
  call void @llvm.lifetime.end.p0(i64 784, ptr %2) #5
  %110 = load i32, ptr %1, align 4
  ret i32 %110
}